target datalayout = "e-m:e-p270:32:32-p271:32:32-p272:64:64-i64:64-i128:128-f80:128-n8:16:32:64-S128"
target triple = "x86_64-pc-linux-gnu"

%struct.lzma_lz_decoder = type { ptr, ptr, ptr, ptr, ptr }
%struct.lzma_options_lzma = type { i32, ptr, i32, i32, i32, i32, i32, i32, i32, i32, i32, i32, i32, i32, i32, i32, i32, i32, i32, i32, i32, i32, ptr, ptr }
%struct.lzma_lz_options = type { i64, ptr, i64 }

; Function Attrs: nounwind uwtable
define dso_local i32 @lzma_lzma_decoder_create(ptr noundef %0, ptr noundef %1, ptr noundef %2, ptr noundef %3) #0 {
  %5 = alloca i32, align 4
  %6 = alloca ptr, align 8
  %7 = alloca ptr, align 8
  %8 = alloca ptr, align 8
  %9 = alloca ptr, align 8
  %10 = alloca ptr, align 8
  store ptr %0, ptr %6, align 8
  store ptr %1, ptr %7, align 8
  store ptr %2, ptr %8, align 8
  store ptr %3, ptr %9, align 8
  %11 = load ptr, ptr %6, align 8
  %12 = getelementptr inbounds %struct.lzma_lz_decoder, ptr %11, i32 0, i32 0
  %13 = load ptr, ptr %12, align 8
  %14 = icmp eq ptr %13, null
  br i1 %14, label %15, label %32

15:                                               ; preds = %4
  %16 = load ptr, ptr %7, align 8
  %17 = call noalias ptr @lzma_alloc(i64 noundef 28352, ptr noundef %16)
  %18 = load ptr, ptr %6, align 8
  %19 = getelementptr inbounds %struct.lzma_lz_decoder, ptr %18, i32 0, i32 0
  store ptr %17, ptr %19, align 8
  %20 = load ptr, ptr %6, align 8
  %21 = getelementptr inbounds %struct.lzma_lz_decoder, ptr %20, i32 0, i32 0
  %22 = load ptr, ptr %21, align 8
  %23 = icmp eq ptr %22, null
  br i1 %23, label %24, label %25

24:                                               ; preds = %15
  store i32 5, ptr %5, align 4
  br label %51

25:                                               ; preds = %15
  %26 = load ptr, ptr %6, align 8
  %27 = getelementptr inbounds %struct.lzma_lz_decoder, ptr %26, i32 0, i32 1
  store ptr @lzma_decode, ptr %27, align 8
  %28 = load ptr, ptr %6, align 8
  %29 = getelementptr inbounds %struct.lzma_lz_decoder, ptr %28, i32 0, i32 2
  store ptr @lzma_decoder_reset, ptr %29, align 8
  %30 = load ptr, ptr %6, align 8
  %31 = getelementptr inbounds %struct.lzma_lz_decoder, ptr %30, i32 0, i32 3
  store ptr @lzma_decoder_uncompressed, ptr %31, align 8
  br label %32

32:                                               ; preds = %25, %4
  %33 = load ptr, ptr %8, align 8
  store ptr %33, ptr %10, align 8
  %34 = load ptr, ptr %10, align 8
  %35 = getelementptr inbounds %struct.lzma_options_lzma, ptr %34, i32 0, i32 0
  %36 = load i32, ptr %35, align 8
  %37 = zext i32 %36 to i64
  %38 = load ptr, ptr %9, align 8
  %39 = getelementptr inbounds %struct.lzma_lz_options, ptr %38, i32 0, i32 0
  store i64 %37, ptr %39, align 8
  %40 = load ptr, ptr %10, align 8
  %41 = getelementptr inbounds %struct.lzma_options_lzma, ptr %40, i32 0, i32 1
  %42 = load ptr, ptr %41, align 8
  %43 = load ptr, ptr %9, align 8
  %44 = getelementptr inbounds %struct.lzma_lz_options, ptr %43, i32 0, i32 1
  store ptr %42, ptr %44, align 8
  %45 = load ptr, ptr %10, align 8
  %46 = getelementptr inbounds %struct.lzma_options_lzma, ptr %45, i32 0, i32 2
  %47 = load i32, ptr %46, align 8
  %48 = zext i32 %47 to i64
  %49 = load ptr, ptr %9, align 8
  %50 = getelementptr inbounds %struct.lzma_lz_options, ptr %49, i32 0, i32 2
  store i64 %48, ptr %50, align 8
  store i32 0, ptr %5, align 4
  br label %51

51:                                               ; preds = %32, %24
  %52 = load i32, ptr %5, align 4
  ret i32 %52
}