; Function Attrs: nounwind uwtable
define dso_local range(i32 0, 6) i32 @lzma_lzma_decoder_create(ptr noundef captures(none) %0, ptr noundef %1, ptr noundef readonly captures(none) %2, ptr noundef writeonly captures(none) %3) local_unnamed_addr #0 {
  %5 = load ptr, ptr %0, align 8
  %6 = icmp eq ptr %5, null
  br i1 %6, label %7, label %14

7:                                                ; preds = %4
  %8 = tail call noalias ptr @lzma_alloc(i64 noundef 28352, ptr noundef %1) #9
  store ptr %8, ptr %0, align 8
  %9 = icmp eq ptr %8, null
  br i1 %9, label %24, label %10

10:                                               ; preds = %7
  %11 = getelementptr inbounds nuw i8, ptr %0, i64 8
  store ptr @lzma_decode, ptr %11, align 8
  %12 = getelementptr inbounds nuw i8, ptr %0, i64 16
  store ptr @lzma_decoder_reset, ptr %12, align 8
  %13 = getelementptr inbounds nuw i8, ptr %0, i64 24
  store ptr @lzma_decoder_uncompressed, ptr %13, align 8
  br label %14

14:                                               ; preds = %10, %4
  %15 = load i32, ptr %2, align 8
  %16 = zext i32 %15 to i64
  store i64 %16, ptr %3, align 8
  %17 = getelementptr inbounds nuw i8, ptr %2, i64 8
  %18 = load ptr, ptr %17, align 8
  %19 = getelementptr inbounds nuw i8, ptr %3, i64 8
  store ptr %18, ptr %19, align 8
  %20 = getelementptr inbounds nuw i8, ptr %2, i64 16
  %21 = load i32, ptr %20, align 8
  %22 = zext i32 %21 to i64
  %23 = getelementptr inbounds nuw i8, ptr %3, i64 16
  store i64 %22, ptr %23, align 8
  br label %24

24:                                               ; preds = %7, %14
  %.0 = phi i32 [ 0, %14 ], [ 5, %7 ]
  ret i32 %.0
}